target datalayout = "e-m:e-p270:32:32-p271:32:32-p272:64:64-i64:64-i128:128-f80:128-n8:16:32:64-S128"
target triple = "x86_64-pc-linux-gnu"

%"class.base::FilePath" = type { %"class.std::__cxx11::basic_string" }
%"class.std::__cxx11::basic_string" = type { %"struct.std::__cxx11::basic_string<char>::_Alloc_hider", i64, %union.anon }
%"struct.std::__cxx11::basic_string<char>::_Alloc_hider" = type { ptr }
%union.anon = type { i64, [8 x i8] }

@.str.8 = private unnamed_addr constant [3 x i8] c"a+\00", align 1

; Function Attrs: mustprogress uwtable
define noundef ptr @_ZN4base31CreateAndOpenTemporaryFileInDirERKNS_8FilePathEPS0_(ptr noundef nonnull align 8 dereferenceable(32) %0, ptr noundef %1) #0 personality ptr @__gxx_personality_v0 {
  %3 = alloca ptr, align 8
  %4 = alloca ptr, align 8
  %5 = alloca ptr, align 8
  %6 = alloca i32, align 4
  %7 = alloca %"class.base::FilePath", align 8
  %8 = alloca ptr, align 8
  %9 = alloca i32, align 4
  %10 = alloca i32, align 4
  %11 = alloca ptr, align 8
  store ptr %0, ptr %4, align 8, !tbaa !3
  store ptr %1, ptr %5, align 8, !tbaa !3
  call void @llvm.lifetime.start.p0(i64 4, ptr %6) #10
  %12 = load ptr, ptr %4, align 8, !tbaa !3
  call void @_ZN4base8FilePathC1ERKS0_(ptr noundef nonnull align 8 dereferenceable(32) %7, ptr noundef nonnull align 8 dereferenceable(32) %12)
  %13 = load ptr, ptr %5, align 8, !tbaa !3
  %14 = invoke noundef i32 @_ZN4base12_GLOBAL__N_131CreateAndOpenFdForTemporaryFileENS_8FilePathEPS1_(ptr noundef %7, ptr noundef %13)
          to label %15 unwind label %19

15:                                               ; preds = %2
  call void @_ZN4base8FilePathD1Ev(ptr noundef nonnull align 8 dereferenceable(32) %7) #10
  store i32 %14, ptr %6, align 4, !tbaa !20
  %16 = load i32, ptr %6, align 4, !tbaa !20
  %17 = icmp slt i32 %16, 0
  br i1 %17, label %18, label %23

18:                                               ; preds = %15
  store ptr null, ptr %3, align 8
  store i32 1, ptr %10, align 4
  br label %33

19:                                               ; preds = %2
  %20 = landingpad { ptr, i32 }
          cleanup
  %21 = extractvalue { ptr, i32 } %20, 0
  store ptr %21, ptr %8, align 8
  %22 = extractvalue { ptr, i32 } %20, 1
  store i32 %22, ptr %9, align 4
  call void @_ZN4base8FilePathD1Ev(ptr noundef nonnull align 8 dereferenceable(32) %7) #10
  call void @llvm.lifetime.end.p0(i64 4, ptr %6) #10
  br label %35

23:                                               ; preds = %15
  call void @llvm.lifetime.start.p0(i64 8, ptr %11) #10
  %24 = load i32, ptr %6, align 4, !tbaa !20
  %25 = call noalias ptr @fdopen(i32 noundef %24, ptr noundef @.str.8) #10
  store ptr %25, ptr %11, align 8, !tbaa !83
  %26 = load ptr, ptr %11, align 8, !tbaa !83
  %27 = icmp ne ptr %26, null
  br i1 %27, label %31, label %28

28:                                               ; preds = %23
  %29 = load i32, ptr %6, align 4, !tbaa !20
  %30 = call i32 @close(i32 noundef %29)
  br label %31

31:                                               ; preds = %28, %23
  %32 = load ptr, ptr %11, align 8, !tbaa !83
  store ptr %32, ptr %3, align 8
  store i32 1, ptr %10, align 4
  call void @llvm.lifetime.end.p0(i64 8, ptr %11) #10
  br label %33

33:                                               ; preds = %31, %18
  call void @llvm.lifetime.end.p0(i64 4, ptr %6) #10
  %34 = load ptr, ptr %3, align 8
  ret ptr %34

35:                                               ; preds = %19
  %36 = load ptr, ptr %8, align 8
  %37 = load i32, ptr %9, align 4
  %38 = insertvalue { ptr, i32 } poison, ptr %36, 0
  %39 = insertvalue { ptr, i32 } %38, i32 %37, 1
  resume { ptr, i32 } %39
}