; Function Attrs: mustprogress uwtable
define noalias noundef ptr @_ZN4base31CreateAndOpenTemporaryFileInDirERKNS_8FilePathEPS0_(ptr noundef nonnull align 8 dereferenceable(32) %0, ptr noundef %1) local_unnamed_addr #0 personality ptr @__gxx_personality_v0 {
  %3 = alloca %"class.base::FilePath", align 8
  call void @_ZN4base8FilePathC1ERKS0_(ptr noundef nonnull align 8 dereferenceable(32) %3, ptr noundef nonnull align 8 dereferenceable(32) %0)
  %4 = invoke fastcc noundef i32 @_ZN4base12_GLOBAL__N_131CreateAndOpenFdForTemporaryFileENS_8FilePathEPS1_(ptr noundef %3, ptr noundef %1)
          to label %5 unwind label %7

5:                                                ; preds = %2
  call void @_ZN4base8FilePathD1Ev(ptr noundef nonnull align 8 dereferenceable(32) %3) #24
  %6 = icmp slt i32 %4, 0
  br i1 %6, label %13, label %9

7:                                                ; preds = %2
  %8 = landingpad { ptr, i32 }
          cleanup
  call void @_ZN4base8FilePathD1Ev(ptr noundef nonnull align 8 dereferenceable(32) %3) #24
  resume { ptr, i32 } %8

9:                                                ; preds = %5
  %10 = call noalias ptr @fdopen(i32 noundef %4, ptr noundef nonnull @.str.8) #24
  %.not = icmp eq ptr %10, null
  br i1 %.not, label %11, label %13

11:                                               ; preds = %9
  %12 = call i32 @close(i32 noundef %4)
  br label %13

13:                                               ; preds = %9, %11, %5
  %.0 = phi ptr [ null, %5 ], [ null, %11 ], [ %10, %9 ]
  ret ptr %.0
}